; Function Attrs: mustprogress nofree nounwind willreturn memory(write, argmem: readwrite) uwtable
define { i64, i64 } @_ZNK2cv11RotatedRect12boundingRectEv(ptr noundef nonnull readonly align 4 captures(none) dereferenceable(20) %0) local_unnamed_addr #10 align 2 {
  %2 = getelementptr inbounds nuw i8, ptr %0, i64 16
  %3 = load float, ptr %2, align 4, !tbaa !56
  %4 = fpext float %3 to double
  %5 = fmul double %4, 0x400921FB54442D18
  %6 = fdiv double %5, 1.800000e+02
  %7 = tail call double @cos(double noundef %6) #20, !tbaa !31
  %8 = fptrunc double %7 to float
  %9 = fmul float %8, 5.000000e-01
  %10 = tail call double @sin(double noundef %6) #20, !tbaa !31
  %11 = fptrunc double %10 to float
  %12 = fmul float %11, 5.000000e-01
  %13 = load float, ptr %0, align 4, !tbaa !59
  %14 = getelementptr inbounds nuw i8, ptr %0, i64 8
  %15 = getelementptr inbounds nuw i8, ptr %0, i64 12
  %16 = load float, ptr %15, align 4, !tbaa !60
  %17 = fneg float %12
  %18 = tail call float @llvm.fmuladd.f32(float %17, float %16, float %13)
  %19 = load float, ptr %14, align 4, !tbaa !61
  %20 = fneg float %9
  %21 = tail call float @llvm.fmuladd.f32(float %20, float %19, float %18)
  %22 = getelementptr inbounds nuw i8, ptr %0, i64 4
  %23 = load float, ptr %22, align 4, !tbaa !62
  %24 = tail call float @llvm.fmuladd.f32(float %9, float %16, float %23)
  %25 = tail call float @llvm.fmuladd.f32(float %17, float %19, float %24)
  %26 = tail call float @llvm.fmuladd.f32(float %12, float %16, float %13)
  %27 = tail call float @llvm.fmuladd.f32(float %20, float %19, float %26)
  %28 = tail call float @llvm.fmuladd.f32(float %20, float %16, float %23)
  %29 = tail call float @llvm.fmuladd.f32(float %17, float %19, float %28)
  %30 = fneg float %21
  %31 = tail call float @llvm.fmuladd.f32(float %13, float 2.000000e+00, float %30)
  %32 = fneg float %25
  %33 = tail call float @llvm.fmuladd.f32(float %23, float 2.000000e+00, float %32)
  %34 = fneg float %27
  %35 = tail call float @llvm.fmuladd.f32(float %13, float 2.000000e+00, float %34)
  %36 = fneg float %29
  %37 = tail call float @llvm.fmuladd.f32(float %23, float 2.000000e+00, float %36)
  %38 = fcmp olt float %27, %21
  %39 = select i1 %38, float %27, float %21
  %40 = fcmp olt float %31, %39
  %41 = select i1 %40, float %31, float %39
  %42 = fcmp olt float %35, %41
  %43 = select i1 %42, float %35, float %41
  %44 = tail call float @llvm.floor.f32(float %43)
  %45 = fptosi float %44 to i32
  %46 = fcmp olt float %29, %25
  %47 = select i1 %46, float %29, float %25
  %48 = fcmp olt float %33, %47
  %49 = select i1 %48, float %33, float %47
  %50 = fcmp olt float %37, %49
  %51 = select i1 %50, float %37, float %49
  %52 = tail call float @llvm.floor.f32(float %51)
  %53 = fptosi float %52 to i32
  %54 = fcmp olt float %21, %27
  %55 = select i1 %54, float %27, float %21
  %56 = fcmp olt float %55, %31
  %57 = select i1 %56, float %31, float %55
  %58 = fcmp olt float %57, %35
  %59 = select i1 %58, float %35, float %57
  %60 = tail call float @llvm.ceil.f32(float %59)
  %61 = fptosi float %60 to i32
  %62 = fcmp olt float %25, %29
  %63 = select i1 %62, float %29, float %25
  %64 = fcmp olt float %63, %33
  %65 = select i1 %64, float %33, float %63
  %66 = fcmp olt float %65, %37
  %67 = select i1 %66, float %37, float %65
  %68 = tail call float @llvm.ceil.f32(float %67)
  %69 = fptosi float %68 to i32
  %reass.sub = sub i32 %61, %45
  %70 = add i32 %reass.sub, 1
  %reass.sub31 = sub i32 %69, %53
  %71 = add i32 %reass.sub31, 1
  %.sroa.3.0.insert.ext = zext i32 %53 to i64
  %.sroa.3.0.insert.shift = shl nuw i64 %.sroa.3.0.insert.ext, 32
  %.sroa.0.0.insert.ext = zext i32 %45 to i64
  %.sroa.0.0.insert.insert = or disjoint i64 %.sroa.3.0.insert.shift, %.sroa.0.0.insert.ext
  %.fca.0.insert = insertvalue { i64, i64 } poison, i64 %.sroa.0.0.insert.insert, 0
  %.sroa.9.8.insert.ext = zext i32 %71 to i64
  %.sroa.9.8.insert.shift = shl nuw i64 %.sroa.9.8.insert.ext, 32
  %.sroa.5.8.insert.ext = zext i32 %70 to i64
  %.sroa.5.8.insert.insert = or disjoint i64 %.sroa.9.8.insert.shift, %.sroa.5.8.insert.ext
  %.fca.1.insert = insertvalue { i64, i64 } %.fca.0.insert, i64 %.sroa.5.8.insert.insert, 1
  ret { i64, i64 } %.fca.1.insert
}